; Function Attrs: mustprogress uwtable
define hidden void @_ZN16fpa2bv_converter20mk_round_to_integralEP9func_decljPKP4exprR7obj_refIS2_11ast_managerE(ptr noundef nonnull align 8 dereferenceable(496) %0, ptr noundef readonly captures(none) %1, i32 noundef %2, ptr noundef readonly captures(none) %3, ptr noundef nonnull align 8 dereferenceable(16) %4) local_unnamed_addr #3 align 2 personality ptr @__gxx_personality_v0 {
  %6 = alloca %class.obj_ref, align 8
  %7 = alloca %class.obj_ref, align 8
  call void @llvm.lifetime.start.p0(i64 16, ptr nonnull %6) #23
  %8 = getelementptr inbounds nuw i8, ptr %0, i64 8
  %9 = load ptr, ptr %8, align 8, !tbaa !130
  %10 = getelementptr inbounds nuw i8, ptr %6, i64 8
  store ptr %9, ptr %10, align 8, !tbaa !6
  call void @llvm.lifetime.start.p0(i64 16, ptr nonnull %7) #23
  %11 = getelementptr inbounds nuw i8, ptr %7, i64 8
  store ptr %9, ptr %11, align 8, !tbaa !6
  %12 = load ptr, ptr %3, align 8, !tbaa !122
  %13 = getelementptr inbounds nuw i8, ptr %12, i64 32
  %14 = load ptr, ptr %13, align 8, !tbaa !122
  %.not.i = icmp eq ptr %14, null
  br i1 %.not.i, label %18, label %_ZN11ast_manager7inc_refEP3ast.exit.i

_ZN11ast_manager7inc_refEP3ast.exit.i:            ; preds = %5
  %15 = getelementptr inbounds nuw i8, ptr %14, i64 8
  %16 = load i32, ptr %15, align 4, !tbaa !125
  %17 = add i32 %16, 1
  store i32 %17, ptr %15, align 4, !tbaa !125
  br label %18

18:                                               ; preds = %_ZN11ast_manager7inc_refEP3ast.exit.i, %5
  store ptr %14, ptr %6, align 8, !tbaa !164
  %19 = getelementptr inbounds nuw i8, ptr %3, i64 8
  %20 = load ptr, ptr %19, align 8, !tbaa !122
  %.not.i6 = icmp eq ptr %20, null
  br i1 %.not.i6, label %24, label %_ZN11ast_manager7inc_refEP3ast.exit.i7

_ZN11ast_manager7inc_refEP3ast.exit.i7:           ; preds = %18
  %21 = getelementptr inbounds nuw i8, ptr %20, i64 8
  %22 = load i32, ptr %21, align 4, !tbaa !125
  %23 = add i32 %22, 1
  store i32 %23, ptr %21, align 4, !tbaa !125
  br label %24

24:                                               ; preds = %18, %_ZN11ast_manager7inc_refEP3ast.exit.i7
  store ptr %20, ptr %7, align 8, !tbaa !164
  %25 = getelementptr inbounds nuw i8, ptr %1, i64 40
  %26 = load ptr, ptr %25, align 8, !tbaa !153
  invoke void @_ZN16fpa2bv_converter20mk_round_to_integralEP4sortR7obj_refI4expr11ast_managerES6_S6_(ptr noundef nonnull align 8 dereferenceable(496) %0, ptr noundef %26, ptr noundef nonnull align 8 dereferenceable(16) %6, ptr noundef nonnull align 8 dereferenceable(16) %7, ptr noundef nonnull align 8 dereferenceable(16) %4)
          to label %27 unwind label %46

27:                                               ; preds = %24
  br i1 %.not.i6, label %_ZN7obj_refI4expr11ast_managerED2Ev.exit, label %28

28:                                               ; preds = %27
  %29 = getelementptr inbounds nuw i8, ptr %20, i64 8
  %30 = load i32, ptr %29, align 4, !tbaa !125
  %31 = add i32 %30, -1
  store i32 %31, ptr %29, align 4, !tbaa !125
  %32 = icmp eq i32 %31, 0
  br i1 %32, label %33, label %_ZN7obj_refI4expr11ast_managerED2Ev.exit

33:                                               ; preds = %28
  invoke void @_ZN11ast_manager11delete_nodeEP3ast(ptr noundef nonnull align 8 dereferenceable(976) %9, ptr noundef nonnull %20)
          to label %_ZN7obj_refI4expr11ast_managerED2Ev.exit unwind label %34

34:                                               ; preds = %33
  %35 = landingpad { ptr, i32 }
          catch ptr null
  %36 = extractvalue { ptr, i32 } %35, 0
  tail call void @__clang_call_terminate(ptr %36) #24
  unreachable

_ZN7obj_refI4expr11ast_managerED2Ev.exit:         ; preds = %27, %28, %33
  call void @llvm.lifetime.end.p0(i64 16, ptr nonnull %7) #23
  br i1 %.not.i, label %_ZN7obj_refI4expr11ast_managerED2Ev.exit12, label %37

37:                                               ; preds = %_ZN7obj_refI4expr11ast_managerED2Ev.exit
  %38 = getelementptr inbounds nuw i8, ptr %14, i64 8
  %39 = load i32, ptr %38, align 4, !tbaa !125
  %40 = add i32 %39, -1
  store i32 %40, ptr %38, align 4, !tbaa !125
  %41 = icmp eq i32 %40, 0
  br i1 %41, label %42, label %_ZN7obj_refI4expr11ast_managerED2Ev.exit12

42:                                               ; preds = %37
  invoke void @_ZN11ast_manager11delete_nodeEP3ast(ptr noundef nonnull align 8 dereferenceable(976) %9, ptr noundef nonnull %14)
          to label %_ZN7obj_refI4expr11ast_managerED2Ev.exit12 unwind label %43

43:                                               ; preds = %42
  %44 = landingpad { ptr, i32 }
          catch ptr null
  %45 = extractvalue { ptr, i32 } %44, 0
  tail call void @__clang_call_terminate(ptr %45) #24
  unreachable

_ZN7obj_refI4expr11ast_managerED2Ev.exit12:       ; preds = %_ZN7obj_refI4expr11ast_managerED2Ev.exit, %37, %42
  call void @llvm.lifetime.end.p0(i64 16, ptr nonnull %6) #23
  ret void

46:                                               ; preds = %24
  %47 = landingpad { ptr, i32 }
          cleanup
  call void @_ZN7obj_refI4expr11ast_managerED2Ev(ptr noundef nonnull align 8 dereferenceable(16) %7) #23
  call void @llvm.lifetime.end.p0(i64 16, ptr nonnull %7) #23
  call void @_ZN7obj_refI4expr11ast_managerED2Ev(ptr noundef nonnull align 8 dereferenceable(16) %6) #23
  call void @llvm.lifetime.end.p0(i64 16, ptr nonnull %6) #23
  resume { ptr, i32 } %47
}